target datalayout = "e-m:e-p270:32:32-p271:32:32-p272:64:64-i64:64-i128:128-f80:128-n8:16:32:64-S128"
target triple = "x86_64-pc-linux-gnu"

%"class.Ipopt::DenseSymMatrix" = type <{ %"class.Ipopt::SymMatrix", ptr, ptr, i8, [7 x i8] }>
%"class.Ipopt::SymMatrix" = type { %"class.Ipopt::Matrix.base", ptr }
%"class.Ipopt::Matrix.base" = type <{ %"class.Ipopt::TaggedObject", %"class.Ipopt::SmartPtr", i32, i8 }>
%"class.Ipopt::TaggedObject" = type { %"class.Ipopt::ReferencedObject.base", %"class.Ipopt::Subject", i32, i32 }
%"class.Ipopt::ReferencedObject.base" = type <{ ptr, i32 }>
%"class.Ipopt::Subject" = type { ptr, %"class.std::vector" }
%"class.std::vector" = type { %"struct.std::_Vector_base" }
%"struct.std::_Vector_base" = type { %"struct.std::_Vector_base<Ipopt::Observer *, std::allocator<Ipopt::Observer *>>::_Vector_impl" }
%"struct.std::_Vector_base<Ipopt::Observer *, std::allocator<Ipopt::Observer *>>::_Vector_impl" = type { %"struct.std::_Vector_base<Ipopt::Observer *, std::allocator<Ipopt::Observer *>>::_Vector_impl_data" }
%"struct.std::_Vector_base<Ipopt::Observer *, std::allocator<Ipopt::Observer *>>::_Vector_impl_data" = type { ptr, ptr, ptr }
%"class.Ipopt::SmartPtr" = type { ptr }
%"class.Ipopt::Matrix" = type <{ %"class.Ipopt::TaggedObject", %"class.Ipopt::SmartPtr", i32, i8, [3 x i8] }>
%"class.Ipopt::DenseGenMatrix" = type { %"class.Ipopt::Matrix.base", ptr, ptr, i8, i32, ptr }
%"class.Ipopt::MatrixSpace" = type { %"class.Ipopt::ReferencedObject.base", i32, i32, [4 x i8] }

; Function Attrs: mustprogress nounwind uwtable
define linkonce_odr noundef i32 @_ZNK5Ipopt14SymMatrixSpace3DimEv(ptr noundef nonnull align 8 dereferenceable(20) %0) #5 comdat align 2 {
  %2 = alloca ptr, align 8
  store ptr %0, ptr %2, align 8, !tbaa !35
  %3 = load ptr, ptr %2, align 8
  %4 = call noundef i32 @_ZNK5Ipopt11MatrixSpace5NRowsEv(ptr noundef nonnull align 8 dereferenceable(20) %3)
  ret i32 %4
}

; Function Attrs: mustprogress nounwind uwtable
define linkonce_odr noundef i32 @_ZNK5Ipopt11MatrixSpace5NColsEv(ptr noundef nonnull align 8 dereferenceable(20) %0) #5 comdat align 2 {
  %2 = alloca ptr, align 8
  store ptr %0, ptr %2, align 8, !tbaa !165
  %3 = load ptr, ptr %2, align 8
  %4 = getelementptr inbounds nuw %"class.Ipopt::MatrixSpace", ptr %3, i32 0, i32 2
  %5 = load i32, ptr %4, align 8, !tbaa !173
  ret i32 %5
}

; Function Attrs: mustprogress nounwind uwtable
define linkonce_odr noundef i32 @_ZNK5Ipopt11MatrixSpace5NRowsEv(ptr noundef nonnull align 8 dereferenceable(20) %0) #5 comdat align 2 {
  %2 = alloca ptr, align 8
  store ptr %0, ptr %2, align 8, !tbaa !165
  %3 = load ptr, ptr %2, align 8
  %4 = getelementptr inbounds nuw %"class.Ipopt::MatrixSpace", ptr %3, i32 0, i32 1
  %5 = load i32, ptr %4, align 4, !tbaa !175
  ret i32 %5
}

; Function Attrs: mustprogress nounwind uwtable
define linkonce_odr noundef ptr @_ZNK5Ipopt8SmartPtrIKNS_11MatrixSpaceEEptEv(ptr noundef nonnull align 8 dereferenceable(8) %0) #5 comdat align 2 {
  %2 = alloca ptr, align 8
  store ptr %0, ptr %2, align 8, !tbaa !105
  %3 = load ptr, ptr %2, align 8
  %4 = getelementptr inbounds nuw %"class.Ipopt::SmartPtr", ptr %3, i32 0, i32 0
  %5 = load ptr, ptr %4, align 8, !tbaa !107
  ret ptr %5
}

; Function Attrs: mustprogress nounwind uwtable
define linkonce_odr noundef ptr @_ZNK5Ipopt14DenseGenMatrix6ValuesEv(ptr noundef nonnull align 8 dereferenceable(104) %0) #5 comdat align 2 {
  %2 = alloca ptr, align 8
  store ptr %0, ptr %2, align 8, !tbaa !79
  %3 = load ptr, ptr %2, align 8
  %4 = getelementptr inbounds nuw %"class.Ipopt::DenseGenMatrix", ptr %3, i32 0, i32 2
  %5 = load ptr, ptr %4, align 8, !tbaa !81
  ret ptr %5
}

; Function Attrs: inlinehint mustprogress uwtable
define linkonce_odr noundef i32 @_ZNK5Ipopt9SymMatrix3DimEv(ptr noundef nonnull align 8 dereferenceable(80) %0) #2 comdat align 2 {
  %2 = alloca ptr, align 8
  store ptr %0, ptr %2, align 8, !tbaa !33
  %3 = load ptr, ptr %2, align 8
  %4 = getelementptr inbounds nuw %"class.Ipopt::SymMatrix", ptr %3, i32 0, i32 1
  %5 = load ptr, ptr %4, align 8, !tbaa !36
  %6 = call noundef i32 @_ZNK5Ipopt14SymMatrixSpace3DimEv(ptr noundef nonnull align 8 dereferenceable(20) %5)
  ret i32 %6
}

; Function Attrs: inlinehint mustprogress uwtable
define linkonce_odr noundef i32 @_ZNK5Ipopt6Matrix5NColsEv(ptr noundef nonnull align 8 dereferenceable(69) %0) #2 comdat align 2 {
  %2 = alloca ptr, align 8
  store ptr %0, ptr %2, align 8, !tbaa !37
  %3 = load ptr, ptr %2, align 8
  %4 = getelementptr inbounds nuw %"class.Ipopt::Matrix", ptr %3, i32 0, i32 1
  %5 = call noundef ptr @_ZNK5Ipopt8SmartPtrIKNS_11MatrixSpaceEEptEv(ptr noundef nonnull align 8 dereferenceable(8) %4)
  %6 = call noundef i32 @_ZNK5Ipopt11MatrixSpace5NColsEv(ptr noundef nonnull align 8 dereferenceable(20) %5)
  ret i32 %6
}

; Function Attrs: inlinehint mustprogress uwtable
define linkonce_odr noundef i32 @_ZNK5Ipopt6Matrix5NRowsEv(ptr noundef nonnull align 8 dereferenceable(69) %0) #2 comdat align 2 {
  %2 = alloca ptr, align 8
  store ptr %0, ptr %2, align 8, !tbaa !37
  %3 = load ptr, ptr %2, align 8
  %4 = getelementptr inbounds nuw %"class.Ipopt::Matrix", ptr %3, i32 0, i32 1
  %5 = call noundef ptr @_ZNK5Ipopt8SmartPtrIKNS_11MatrixSpaceEEptEv(ptr noundef nonnull align 8 dereferenceable(8) %4)
  %6 = call noundef i32 @_ZNK5Ipopt11MatrixSpace5NRowsEv(ptr noundef nonnull align 8 dereferenceable(20) %5)
  ret i32 %6
}

; Function Attrs: mustprogress uwtable
define void @_ZN5Ipopt14DenseSymMatrix14HighRankUpdateEbdRKNS_14DenseGenMatrixEd(ptr noundef nonnull align 8 dereferenceable(97) %0, i1 noundef zeroext %1, double noundef %2, ptr noundef nonnull align 8 dereferenceable(104) %3, double noundef %4) #1 align 2 {
  %6 = alloca ptr, align 8
  %7 = alloca i8, align 1
  %8 = alloca double, align 8
  %9 = alloca ptr, align 8
  %10 = alloca double, align 8
  %11 = alloca i32, align 4
  store ptr %0, ptr %6, align 8, !tbaa !3
  %12 = zext i1 %1 to i8
  store i8 %12, ptr %7, align 1, !tbaa !78
  store double %2, ptr %8, align 8, !tbaa !39
  store ptr %3, ptr %9, align 8, !tbaa !79
  store double %4, ptr %10, align 8, !tbaa !39
  %13 = load ptr, ptr %6, align 8
  call void @llvm.lifetime.start.p0(i64 4, ptr %11) #17
  %14 = load i8, ptr %7, align 1, !tbaa !78, !range !54, !noundef !55
  %15 = trunc i8 %14 to i1
  br i1 %15, label %16, label %19

16:                                               ; preds = %5
  %17 = load ptr, ptr %9, align 8, !tbaa !79
  %18 = call noundef i32 @_ZNK5Ipopt6Matrix5NRowsEv(ptr noundef nonnull align 8 dereferenceable(69) %17)
  store i32 %18, ptr %11, align 4, !tbaa !57
  br label %22

19:                                               ; preds = %5
  %20 = load ptr, ptr %9, align 8, !tbaa !79
  %21 = call noundef i32 @_ZNK5Ipopt6Matrix5NColsEv(ptr noundef nonnull align 8 dereferenceable(69) %20)
  store i32 %21, ptr %11, align 4, !tbaa !57
  br label %22

22:                                               ; preds = %19, %16
  %23 = load i8, ptr %7, align 1, !tbaa !78, !range !54, !noundef !55
  %24 = trunc i8 %23 to i1
  %25 = call noundef i32 @_ZNK5Ipopt9SymMatrix3DimEv(ptr noundef nonnull align 8 dereferenceable(80) %13)
  %26 = load i32, ptr %11, align 4, !tbaa !57
  %27 = load double, ptr %8, align 8, !tbaa !39
  %28 = load ptr, ptr %9, align 8, !tbaa !79
  %29 = call noundef ptr @_ZNK5Ipopt14DenseGenMatrix6ValuesEv(ptr noundef nonnull align 8 dereferenceable(104) %28)
  %30 = load ptr, ptr %9, align 8, !tbaa !79
  %31 = call noundef i32 @_ZNK5Ipopt6Matrix5NRowsEv(ptr noundef nonnull align 8 dereferenceable(69) %30)
  %32 = load double, ptr %10, align 8, !tbaa !39
  %33 = getelementptr inbounds nuw %"class.Ipopt::DenseSymMatrix", ptr %13, i32 0, i32 2
  %34 = load ptr, ptr %33, align 8, !tbaa !31
  %35 = call noundef i32 @_ZNK5Ipopt6Matrix5NRowsEv(ptr noundef nonnull align 8 dereferenceable(69) %13)
  call void @_ZN5Ipopt10IpBlasSyrkEbiidPKdidPdi(i1 noundef zeroext %24, i32 noundef %25, i32 noundef %26, double noundef %27, ptr noundef %29, i32 noundef %31, double noundef %32, ptr noundef %34, i32 noundef %35)
  %36 = getelementptr inbounds nuw %"class.Ipopt::DenseSymMatrix", ptr %13, i32 0, i32 3
  store i8 1, ptr %36, align 8, !tbaa !32
  call void @_ZN5Ipopt12TaggedObject13ObjectChangedEv(ptr noundef nonnull align 8 dereferenceable(56) %13)
  call void @llvm.lifetime.end.p0(i64 4, ptr %11) #17
  ret void
}