; Function Attrs: mustprogress uwtable
define void @_ZN5Ipopt14DenseSymMatrix14HighRankUpdateEbdRKNS_14DenseGenMatrixEd(ptr noundef nonnull align 8 dereferenceable(97) initializes((96, 97)) %0, i1 noundef zeroext %1, double noundef %2, ptr noundef nonnull readonly align 8 captures(none) dereferenceable(104) %3, double noundef %4) local_unnamed_addr #1 align 2 {
  %6 = getelementptr inbounds nuw i8, ptr %3, i64 56
  %7 = load ptr, ptr %6, align 8
  %.0.in.v = select i1 %1, i64 12, i64 16
  %.0.in = getelementptr inbounds nuw i8, ptr %7, i64 %.0.in.v
  %.0 = load i32, ptr %.0.in, align 4, !tbaa !102
  %8 = getelementptr inbounds nuw i8, ptr %0, i64 72
  %9 = load ptr, ptr %8, align 8, !tbaa !25
  %10 = getelementptr inbounds nuw i8, ptr %9, i64 12
  %11 = load i32, ptr %10, align 4, !tbaa !34
  %12 = getelementptr inbounds nuw i8, ptr %3, i64 80
  %13 = load ptr, ptr %12, align 8, !tbaa !103
  %14 = getelementptr inbounds nuw i8, ptr %7, i64 12
  %15 = load i32, ptr %14, align 4, !tbaa !34
  %16 = getelementptr inbounds nuw i8, ptr %0, i64 88
  %17 = load ptr, ptr %16, align 8, !tbaa !35
  %18 = getelementptr inbounds nuw i8, ptr %0, i64 56
  %19 = load ptr, ptr %18, align 8, !tbaa !10
  %20 = getelementptr inbounds nuw i8, ptr %19, i64 12
  %21 = load i32, ptr %20, align 4, !tbaa !34
  tail call void @_ZN5Ipopt10IpBlasSyrkEbiidPKdidPdi(i1 noundef zeroext %1, i32 noundef %11, i32 noundef %.0, double noundef %2, ptr noundef %13, i32 noundef %15, double noundef %4, ptr noundef %17, i32 noundef %21)
  %22 = getelementptr inbounds nuw i8, ptr %0, i64 96
  store i8 1, ptr %22, align 8, !tbaa !36
  tail call void @_ZN5Ipopt12TaggedObject13ObjectChangedEv(ptr noundef nonnull align 8 dereferenceable(56) %0)
  ret void
}